Certificate:
    Data:
        Version: 3 (0x2)
        Serial Number: 1 (0x1)
    Signature Algorithm: sha256WithRSAEncryption
        Issuer: C=US, ST=CA, O=Plume Design Inc., OU=FUT Certificate Authority, CN=FUT Root CA
        Validity
            Not Before: Jan  1 00:00:00 1970 GMT
            Not After : Jan  1 00:00:00 2035 GMT
        Subject: CN=192.168.200.1, C=US, OU=FUT Certificate Authority, O=Plume Design Inc., ST=CA
        Subject Public Key Info:
            Public Key Algorithm: rsaEncryption
                Public-Key: (4096 bit)
                Modulus:
                    00:a9:94:88:2b:92:6a:8c:19:86:b5:2d:d4:37:db:
                    9d:f4:3c:b5:d2:3d:86:18:8f:e0:75:13:f0:9c:82:
                    72:b9:16:6e:30:d4:06:ce:66:36:4a:32:b5:e5:11:
                    6c:00:94:21:b5:d1:4e:e6:05:bb:97:20:90:f6:cf:
                    10:72:62:19:fd:61:03:94:3a:26:04:c3:f0:d7:15:
                    f6:28:e8:d4:df:b6:03:77:97:23:3b:4e:4c:ef:bc:
                    57:96:c7:c5:17:06:ca:2e:9b:a6:a2:be:23:d7:14:
                    7a:da:13:16:37:84:a8:5e:17:06:64:d7:5c:eb:42:
                    91:29:75:a9:02:e1:05:f2:a0:8c:cd:e7:e9:92:0c:
                    54:ab:8b:60:51:2f:a0:e0:3b:9c:09:ad:b3:33:5a:
                    c0:2f:ab:a2:5c:ae:b3:00:b3:08:bf:e8:9a:c7:9d:
                    4a:46:c2:e7:12:19:dd:69:d7:aa:a4:0e:6a:05:87:
                    ed:a3:e6:a1:1a:6a:4b:e2:0b:83:14:cf:ee:6e:66:
                    e4:37:2a:9e:80:12:c8:e4:ab:7c:72:1c:1b:66:62:
                    05:83:b7:46:de:c2:89:0e:e0:d4:2d:2e:8a:a8:ad:
                    d4:92:63:89:7c:2c:f8:d8:18:e2:1e:b0:2e:22:a1:
                    72:38:80:47:a3:06:47:4b:ab:ac:02:d5:08:c6:42:
                    10:ce:74:89:63:43:ae:ce:d2:9e:b4:bd:a9:af:44:
                    e5:c7:64:33:2e:3d:e8:93:38:51:5f:5a:4d:97:24:
                    45:43:84:88:99:fe:88:ac:7e:d0:ec:3a:58:e9:54:
                    28:ff:b3:01:1e:57:67:3c:2f:e6:ef:9b:72:d4:58:
                    af:31:fd:87:38:66:7e:64:88:ff:bc:7b:6c:ec:37:
                    8a:cd:11:b0:66:b8:24:8c:41:35:a6:6f:9b:73:9a:
                    bc:cd:34:f7:92:93:db:d9:be:c4:4a:9b:7a:56:ca:
                    cf:f6:f7:05:84:fb:4b:91:56:4a:86:36:4f:9b:7a:
                    49:d4:ee:9f:3f:e3:81:2e:1a:47:fe:36:9c:2f:4a:
                    2f:8b:d7:0d:e7:7c:8d:b8:9a:e4:b8:8f:92:5d:fd:
                    c6:1a:c7:18:48:34:fa:6a:a0:f4:3f:db:af:65:e2:
                    78:36:0c:dc:1d:c3:da:eb:e0:2d:13:2b:d1:72:47:
                    06:ff:6a:db:f2:67:b2:95:de:12:d7:8c:ba:cc:39:
                    d4:e6:b0:b7:3b:81:a3:9a:38:87:b9:cf:b2:52:bb:
                    65:76:3e:77:77:01:c9:9f:56:e4:c3:64:e1:dd:cf:
                    1a:36:17:46:ea:30:6f:69:ed:31:42:60:db:77:04:
                    18:c3:82:90:10:3c:88:16:a2:8d:70:61:0e:a6:fd:
                    2c:7e:0f
                Exponent: 65537 (0x10001)
        X509v3 extensions:
            X509v3 Authority Key Identifier:
                keyid:1B:94:9C:79:11:86:69:3B:C5:83:BA:4A:1C:7F:7F:61:45:40:E6:3E

            X509v3 Subject Key Identifier:
                FB:5F:48:D8:8F:08:C9:D9:3F:33:BA:80:1E:F2:E2:C3:DD:49:E8:7F
            X509v3 Basic Constraints: critical
                CA:FALSE
            X509v3 Key Usage: critical
                Digital Signature, Key Encipherment
            X509v3 Extended Key Usage:
                TLS Web Client Authentication, TLS Web Server Authentication
    Signature Algorithm: sha256WithRSAEncryption
         38:85:68:0d:54:ff:d3:5b:29:5c:81:2b:29:3e:b7:fe:d6:a4:
         80:26:db:d3:47:9a:c1:db:fb:d3:86:85:b2:a9:35:76:f4:04:
         c6:2e:9a:80:10:69:16:06:87:3b:dc:65:69:2c:d1:31:35:9b:
         bb:c4:20:e6:97:02:59:bb:58:cc:a5:a7:7b:b4:2f:b4:59:2e:
         49:14:54:6d:97:61:58:c3:70:08:20:89:72:f6:fe:9e:87:cf:
         30:83:af:c3:15:64:db:81:c5:52:7f:74:da:30:0f:2a:17:d6:
         37:3b:78:f5:ba:4e:c3:1e:2a:3b:cf:b9:ab:3e:26:c3:ef:4b:
         a4:9d:67:4f:4e:e8:87:02:b8:f8:68:13:b9:a2:3c:1f:7a:52:
         a5:93:d4:9c:05:76:60:03:ff:57:07:e4:7c:0c:47:77:b6:2a:
         95:ed:d6:e4:ba:3d:f1:42:7a:3b:dd:4f:f9:67:60:9d:de:75:
         1f:3a:13:8c:df:ef:27:a7:8d:22:c5:bd:35:85:ef:71:30:f3:
         fe:52:35:6b:a1:0b:c7:39:13:40:50:84:54:df:48:89:b3:f5:
         24:d8:94:88:9c:c9:1a:9a:13:b1:3a:b8:63:9c:c5:54:ed:f6:
         96:f1:5d:4f:97:68:db:43:25:79:b7:a5:4c:da:31:01:62:6f:
         00:f2:ef:48:6c:1c:ea:35:88:d3:09:3f:00:cc:d4:06:59:b3:
         7d:d9:7c:0e:73:a2:20:21:1b:45:fd:15:fe:df:f1:8a:e7:1f:
         c8:50:fc:6e:a8:12:90:98:17:ec:d1:58:79:2d:b9:18:f0:56:
         f7:09:75:be:39:f6:94:bb:f1:c0:73:be:e2:98:1a:13:7d:9f:
         14:20:a6:29:86:6f:14:03:99:46:31:67:f9:8d:bc:37:14:bf:
         66:49:c7:73:65:41:b6:12:cc:77:b1:a2:77:c3:99:5b:97:47:
         70:52:99:39:2c:4a:19:2b:54:6f:95:38:cb:c8:f1:2f:af:41:
         cc:a5:c3:27:8a:66:f1:28:93:cf:21:a4:74:fb:72:a4:94:1e:
         e9:95:b4:51:7e:d5:0e:1e:74:c4:3b:eb:7c:14:68:fa:ec:20:
         84:0c:d6:8b:9e:d1:f6:e3:f3:5b:45:4a:23:41:a2:68:16:5d:
         1a:9b:37:37:9f:47:41:7a:2f:cc:0c:c7:93:e9:d2:19:45:8a:
         ed:0b:44:75:17:ce:bd:3c:43:80:f3:b1:f4:31:66:01:ad:c0:
         f1:7c:4d:c2:fa:b6:8e:18:58:20:d4:19:50:ac:b2:bc:b4:04:
         21:cc:89:dc:b7:51:0d:97:10:f0:27:f4:25:70:7b:4e:c8:9b:
         cf:ec:6f:a7:22:f6:9d:23
-----BEGIN CERTIFICATE-----
MIIF3DCCA8SgAwIBAgIBATANBgkqhkiG9w0BAQsFADBwMQswCQYDVQQGEwJVUzEL
MAkGA1UECAwCQ0ExGjAYBgNVBAoMEVBsdW1lIERlc2lnbiBJbmMuMSIwIAYDVQQL
DBlGVVQgQ2VydGlmaWNhdGUgQXV0aG9yaXR5MRQwEgYDVQQDDAtGVVQgUm9vdCBD
QTAeFw03MDAxMDEwMDAwMDBaFw0zNTAxMDEwMDAwMDBaMHIxFjAUBgNVBAMMDTE5
Mi4xNjguMjAwLjExCzAJBgNVBAYTAlVTMSIwIAYDVQQLDBlGVVQgQ2VydGlmaWNh
dGUgQXV0aG9yaXR5MRowGAYDVQQKDBFQbHVtZSBEZXNpZ24gSW5jLjELMAkGA1UE
CAwCQ0EwggIiMA0GCSqGSIb3DQEBAQUAA4ICDwAwggIKAoICAQCplIgrkmqMGYa1
LdQ32530PLXSPYYYj+B1E/CcgnK5Fm4w1AbOZjZKMrXlEWwAlCG10U7mBbuXIJD2
zxByYhn9YQOUOiYEw/DXFfYo6NTftgN3lyM7TkzvvFeWx8UXBsoum6aiviPXFHra
ExY3hKheFwZk11zrQpEpdakC4QXyoIzN5+mSDFSri2BRL6DgO5wJrbMzWsAvq6Jc
rrMAswi/6JrHnUpGwucSGd1p16qkDmoFh+2j5qEaakviC4MUz+5uZuQ3Kp6AEsjk
q3xyHBtmYgWDt0bewokO4NQtLoqordSSY4l8LPjYGOIesC4ioXI4gEejBkdLq6wC
1QjGQhDOdIljQ67O0p60vamvROXHZDMuPeiTOFFfWk2XJEVDhIiZ/oisftDsOljp
VCj/swEeV2c8L+bvm3LUWK8x/Yc4Zn5kiP+8e2zsN4rNEbBmuCSMQTWmb5tzmrzN
NPeSk9vZvsRKm3pWys/29wWE+0uRVkqGNk+beknU7p8/44EuGkf+NpwvSi+L1w3n
fI24muS4j5Jd/cYaxxhINPpqoPQ/269l4ng2DNwdw9rr4C0TK9FyRwb/atvyZ7KV
3hLXjLrMOdTmsLc7gaOaOIe5z7JSu2V2Pnd3AcmfVuTDZOHdzxo2F0bqMG9p7TFC
YNt3BBjDgpAQPIgWoo1wYQ6m/Sx+DwIDAQABo38wfTAfBgNVHSMEGDAWgBQblJx5
EYZpO8WDukocf39hRUDmPjAdBgNVHQ4EFgQU+19I2I8Iydk/M7qAHvLiw91J6H8w
DAYDVR0TAQH/BAIwADAOBgNVHQ8BAf8EBAMCBaAwHQYDVR0lBBYwFAYIKwYBBQUH
AwIGCCsGAQUFBwMBMA0GCSqGSIb3DQEBCwUAA4ICAQA4hWgNVP/TWylcgSspPrf+
1qSAJtvTR5rB2/vThoWyqTV29ATGLpqAEGkWBoc73GVpLNExNZu7xCDmlwJZu1jM
pad7tC+0WS5JFFRtl2FYw3AIIIly9v6eh88wg6/DFWTbgcVSf3TaMA8qF9Y3O3j1
uk7DHio7z7mrPibD70uknWdPTuiHArj4aBO5ojwfelKlk9ScBXZgA/9XB+R8DEd3
tiqV7dbkuj3xQno73U/5Z2Cd3nUfOhOM3+8np40ixb01he9xMPP+UjVroQvHORNA
UIRU30iJs/Uk2JSInMkamhOxOrhjnMVU7faW8V1Pl2jbQyV5t6VM2jEBYm8A8u9I
bBzqNYjTCT8AzNQGWbN92XwOc6IgIRtF/RX+3/GK5x/IUPxuqBKQmBfs0Vh5LbkY
8Fb3CXW+OfaUu/HAc77imBoTfZ8UIKYphm8UA5lGMWf5jbw3FL9mScdzZUG2Esx3
saJ3w5lbl0dwUpk5LEoZK1RvlTjLyPEvr0HMpcMnimbxKJPPIaR0+3KklB7plbRR
ftUOHnTEO+t8FGj67CCEDNaLntH24/NbRUojQaJoFl0amzc3n0dBei/MDMeT6dIZ
RYrtC0R1F869PEOA87H0MWYBrcDxfE3C+raOGFgg1BlQrLK8tAQhzInct1ENlxDw
J/QlcHtOyJvP7G+nIvadIw==
-----END CERTIFICATE-----
-----BEGIN RSA PRIVATE KEY-----
MIIJKAIBAAKCAgEAqZSIK5JqjBmGtS3UN9ud9Dy10j2GGI/gdRPwnIJyuRZuMNQG
zmY2SjK15RFsAJQhtdFO5gW7lyCQ9s8QcmIZ/WEDlDomBMPw1xX2KOjU37YDd5cj
O05M77xXlsfFFwbKLpumor4j1xR62hMWN4SoXhcGZNdc60KRKXWpAuEF8qCMzefp
kgxUq4tgUS+g4DucCa2zM1rAL6uiXK6zALMIv+iax51KRsLnEhndadeqpA5qBYft
o+ahGmpL4guDFM/ubmbkNyqegBLI5Kt8chwbZmIFg7dG3sKJDuDULS6KqK3UkmOJ
fCz42BjiHrAuIqFyOIBHowZHS6usAtUIxkIQznSJY0OuztKetL2pr0Tlx2QzLj3o
kzhRX1pNlyRFQ4SImf6IrH7Q7DpY6VQo/7MBHldnPC/m75ty1FivMf2HOGZ+ZIj/
vHts7DeKzRGwZrgkjEE1pm+bc5q8zTT3kpPb2b7ESpt6VsrP9vcFhPtLkVZKhjZP
m3pJ1O6fP+OBLhpH/jacL0ovi9cN53yNuJrkuI+SXf3GGscYSDT6aqD0P9uvZeJ4
NgzcHcPa6+AtEyvRckcG/2rb8meyld4S14y6zDnU5rC3O4GjmjiHuc+yUrtldj53
dwHJn1bkw2Th3c8aNhdG6jBvae0xQmDbdwQYw4KQEDyIFqKNcGEOpv0sfg8CAwEA
AQKCAgEAgVlXaIzdEpIh6y7S0eyFlhd8xKnDEBcmqYcVH/xsj3tpf3sq2eKjBIOb
tOdODz7uW6YU3WWACi2ABZI5xFXJ5zhJp5WXDEl8+kK5Kck3HpDSIjU5XXJDQxXR
ZaRpVEAMlfKJ71bDNbpcXtzyNFTOrD451U9kg9qZqRsjWJvVkpUd8a00vv8C0nqU
dDi1KHSvd75zkvdk4rezN6jVxvHI+cDt1tbGIiVmZasu9R3Y/hw0iJV/EWbIecKc
sQYA7S4Re0qmRuIOVjh93dZkLRH9YGHiPO7ecunF64BYt0Hp5/H309VyuDIBeau5
RpkyB55H5osKmXIfjbubj+l5MOiRsfpQvoyGV4xQEsrNoYr3gBVoryGX71RqRMfq
DH8wpOUOBnp5Hw094CWMCcIhC7+L46OukJcd6e/uUZ0mkJ8lyqfBZ5kx9sXS/QIS
/0excqqGYSB2Cp/Lf2vsstTv7cDYNydYCzRqxUPlR/oxeSRy79AS6vc+T7NFoMKG
zLZIfsZO3qMPf1Fd4vEqxSsnyPsEir7iWoTVLmNABpQGmOp80C74jt0RLa556pEm
0YrMR4GpAnsCmFjYwQ47Hlr2uxPv4CqaOb7Qf92Yzw0Q6t50CgaNFLjxpvd9edrI
ly7960jSNoZ+FRKbmXH4Op6YekqtFDvA1Trziwl3wBbnD368fskCggEBANzwDtJb
NrcOZ655koLVLuEw13M+OjvXpUa35VjUek1HByaVLy0atSBMCdm3DKVszineOWA4
qGpFo6xQkrqM9cEu7o/qQFHKXqp+tDcxdOu9z8aa6JIHFONSKS976U5AoJfOUlWU
z3V/slckp490J+U1KBny8BChJikr1d90y2ZHUUlDfaqw95UVwKz3VZIFIGARr7ft
lMp4zlQ8FauibjTDen9fzp1JqBwcwx5rcV+l591aLorYf2aPZTI3M1nDtUexzJPt
G9ugkCCMTTYdzT+X1gvEkR0XWOJ0dHq2Zdy3m0x20tPIllSNpdkkyBtHhlECraqw
KW55oviJJW8Li7MCggEBAMR9/nUkcD8gcJCSL203wGqBd94a2VHjQHWEVO/sOabX
Pa06RWO2gVHw+gPfHfr8hFVoQT6aD0KLy4dWfF4knkE5CJpm0vOSjN6Z5jZW7RuN
n2wm2vGzKYa6ueP3bNFy+KDVFuEwlJQE2ZHvtZg7IQ33Jxvrjz5ZDdwNeMT0fXZH
jqqwbqJfGRWGSWjbnmEY9ml/uJX49FBsRqQJaGsKUxhA3+w9J4/RGIrmDenz+Jx2
0g1Yi8NgKFFpBNBGHAJxWIOpg7HMNvWYiYNYwdBGNjnc8RDM15Q9wKDTi63VCGJo
QwCU4g110ny3HBPrWCgiD6WpysFIGDx3g1KeIFzEJjUCggEAH40MoM+z1ZpyBgGI
gbSN+EywR93YFRmrmZjDYNcfDBAbnk/pp8hLm2wgb/3rCWirXGFG0k3lByAgyofL
HGbq5YadPOIYA1YiBLkJZWRjrRKzLEqM8eWe/wOJrCVG4QzroiItsdkJc18kCbvL
TfophFr9+g6uZ8GLoI+JAFs+fMGsgwjnVkvlX1324PyFNNAUmoOME3kTKYLs/CyE
b7lHgbN0t+HnsKCHKFSXLK3tR9p6bSrmwJ9AOlY5/lzRsXz4U1+5tlpDAy8/xdYj
ZJoG6JD3WUDd9EiUQeqdg7SugUGbJOVHIEVh6ns79vGAvhyNut3mDR0RHZyzQEjd
lqkQbwKCAQATJwTKfkbCoHLYZKdiyfBjcUMxzwQnyzLZQZDV4fysmoZUgD2LPprU
VdzIy9KsSDjN6l+RroqWPfIUuwVcV81lJh4Ejsk5HKvGdtHNsiNicCd97zugG4qM
q167Lb7Zm49IffzA7m9NDjv20Zqtv/W02sZhHlDUDvIe5OFEsWAZS1hIovHlucdE
Jda59c42QKykE+L2G1IVFLi9/HzFEjiPQKOS71MP3Z26zDnG+BTfi2VmD59v58uG
Q+pIMs1AH7Q1ASzpA7LHtZqRxvD9UBqxASwuKwlIVcyU4InY487xaKA/SkPOdBGU
PnTqLCJnpwpHZ4lv1YsnOa7/OpKE+EmRAoIBACs403vhIALN1Fo1PjYjoBk66Lqn
6u1+D42R3DyzTzd9sZgy0v4YWlxcgiE5RT4HUOEFE2TinZLfOaYMaVjlxeZRAcOI
85+nJamAQJZLZM1BV+0pfaBf44QKUJy1TbO+zTWgqorHXG+W3DenJv5OdJMNUv7k
+lUjudIpZAO6YwAhGmo+F0ndmFM4rCx3aUwo7sC3qoW0L4YKws+vLGzGzYpopc4f
6y7/3VNZN5DOa7TLcZmkXajXBjRxTDVnMThJiT6/vlmKRpwME9ZHpyzeQVNznYUd
CH3/Ifly3U2sGJv37dsQy/sh6PjnRWGRZUoj71SNU+0PLE/+c0LAfUMbNGo=
-----END RSA PRIVATE KEY-----